
_interrupt:
	MOVWF      R15+0
	SWAPF      STATUS+0, 0
	CLRF       STATUS+0
	MOVWF      ___saveSTATUS+0
	MOVF       PCLATH+0, 0
	MOVWF      ___savePCLATH+0
	CLRF       PCLATH+0

;SmartGardenP.c,25 :: 		void interrupt(){
;SmartGardenP.c,26 :: 		if(INTCON.T0IF == 1){
	BTFSS      INTCON+0, 2
	GOTO       L_interrupt0
;SmartGardenP.c,27 :: 		NB--;
	MOVLW      1
	SUBWF      _NB+0, 1
	BTFSS      STATUS+0, 0
	DECF       _NB+1, 1
;SmartGardenP.c,28 :: 		if (NB==0){
	MOVLW      0
	XORWF      _NB+1, 0
	BTFSS      STATUS+0, 2
	GOTO       L__interrupt91
	MOVLW      0
	XORWF      _NB+0, 0
L__interrupt91:
	BTFSS      STATUS+0, 2
	GOTO       L_interrupt1
;SmartGardenP.c,29 :: 		NB=15;
	MOVLW      15
	MOVWF      _NB+0
	MOVLW      0
	MOVWF      _NB+1
;SmartGardenP.c,30 :: 		TMR0=0;
	CLRF       TMR0+0
;SmartGardenP.c,31 :: 		T+=1;
	INCF       _T+0, 1
	BTFSC      STATUS+0, 2
	INCF       _T+1, 1
;SmartGardenP.c,32 :: 		}INTCON.T0IF = 0;
L_interrupt1:
	BCF        INTCON+0, 2
;SmartGardenP.c,33 :: 		}
L_interrupt0:
;SmartGardenP.c,34 :: 		if((intcon.inte)&&(intcon.INTF)){                      //RB0
	BTFSS      INTCON+0, 4
	GOTO       L_interrupt4
	BTFSS      INTCON+0, 1
	GOTO       L_interrupt4
L__interrupt75:
;SmartGardenP.c,35 :: 		v=1;
	MOVLW      1
	MOVWF      _v+0
	MOVLW      0
	MOVWF      _v+1
;SmartGardenP.c,36 :: 		}
L_interrupt4:
;SmartGardenP.c,37 :: 		if((INTCON.RBIE)&&(INTCON.RBIF)){                //RB1 -> RB7
	BTFSS      INTCON+0, 3
	GOTO       L_interrupt7
	BTFSS      INTCON+0, 0
	GOTO       L_interrupt7
L__interrupt74:
;SmartGardenP.c,38 :: 		if(PORTB.rb4==1)
	BTFSS      PORTB+0, 4
	GOTO       L_interrupt8
;SmartGardenP.c,40 :: 		v2=1;
	MOVLW      1
	MOVWF      _v2+0
	MOVLW      0
	MOVWF      _v2+1
;SmartGardenP.c,41 :: 		}
L_interrupt8:
;SmartGardenP.c,42 :: 		if(PORTB.rb5==1)
	BTFSS      PORTB+0, 5
	GOTO       L_interrupt9
;SmartGardenP.c,44 :: 		v3=1;
	MOVLW      1
	MOVWF      _v3+0
	MOVLW      0
	MOVWF      _v3+1
;SmartGardenP.c,45 :: 		}
L_interrupt9:
;SmartGardenP.c,46 :: 		}
L_interrupt7:
;SmartGardenP.c,47 :: 		INTCON.INTF=0; //flag RB0=0
	BCF        INTCON+0, 1
;SmartGardenP.c,48 :: 		INTCON.RBIF=0; // flag des Port RB1 -> RB7= 0
	BCF        INTCON+0, 0
;SmartGardenP.c,50 :: 		}
L_end_interrupt:
L__interrupt90:
	MOVF       ___savePCLATH+0, 0
	MOVWF      PCLATH+0
	SWAPF      ___saveSTATUS+0, 0
	MOVWF      STATUS+0
	SWAPF      R15+0, 1
	SWAPF      R15+0, 0
	RETFIE
; end of _interrupt

_sound:

;SmartGardenP.c,51 :: 		void sound(int O)
;SmartGardenP.c,53 :: 		while((T-O)<300 && panne==1){
L_sound10:
	MOVF       FARG_sound_O+0, 0
	SUBWF      _T+0, 0
	MOVWF      R1+0
	MOVF       FARG_sound_O+1, 0
	BTFSS      STATUS+0, 0
	ADDLW      1
	SUBWF      _T+1, 0
	MOVWF      R1+1
	MOVLW      128
	XORWF      R1+1, 0
	MOVWF      R0+0
	MOVLW      128
	XORLW      1
	SUBWF      R0+0, 0
	BTFSS      STATUS+0, 2
	GOTO       L__sound93
	MOVLW      44
	SUBWF      R1+0, 0
L__sound93:
	BTFSC      STATUS+0, 0
	GOTO       L_sound11
	MOVLW      0
	XORWF      _panne+1, 0
	BTFSS      STATUS+0, 2
	GOTO       L__sound94
	MOVLW      1
	XORWF      _panne+0, 0
L__sound94:
	BTFSS      STATUS+0, 2
	GOTO       L_sound11
L__sound76:
;SmartGardenP.c,54 :: 		Sound_Play(200,250);  // 1 ere Attribue Frequence en HZ de volume et 2 éme attribue pour la duree
	MOVLW      200
	MOVWF      FARG_Sound_Play_freq_in_hz+0
	CLRF       FARG_Sound_Play_freq_in_hz+1
	MOVLW      250
	MOVWF      FARG_Sound_Play_duration_ms+0
	CLRF       FARG_Sound_Play_duration_ms+1
	CALL       _Sound_Play+0
;SmartGardenP.c,55 :: 		data_capteur=ADC_Read(3);   // Read data from RA0.AN0
	MOVLW      3
	MOVWF      FARG_ADC_Read_channel+0
	CALL       _ADC_Read+0
	CALL       _word2double+0
	MOVF       R0+0, 0
	MOVWF      _data_capteur+0
	MOVF       R0+1, 0
	MOVWF      _data_capteur+1
	MOVF       R0+2, 0
	MOVWF      _data_capteur+2
	MOVF       R0+3, 0
	MOVWF      _data_capteur+3
;SmartGardenP.c,56 :: 		Valeur=((data_capteur*100)/1023);
	MOVLW      0
	MOVWF      R4+0
	MOVLW      0
	MOVWF      R4+1
	MOVLW      72
	MOVWF      R4+2
	MOVLW      133
	MOVWF      R4+3
	CALL       _Mul_32x32_FP+0
	MOVLW      0
	MOVWF      R4+0
	MOVLW      192
	MOVWF      R4+1
	MOVLW      127
	MOVWF      R4+2
	MOVLW      136
	MOVWF      R4+3
	CALL       _Div_32x32_FP+0
	MOVF       R0+0, 0
	MOVWF      _Valeur+0
	MOVF       R0+1, 0
	MOVWF      _Valeur+1
	MOVF       R0+2, 0
	MOVWF      _Valeur+2
	MOVF       R0+3, 0
	MOVWF      _Valeur+3
;SmartGardenP.c,57 :: 		if(Valeur>=30) panne=0;
	MOVLW      0
	MOVWF      R4+0
	MOVLW      0
	MOVWF      R4+1
	MOVLW      112
	MOVWF      R4+2
	MOVLW      131
	MOVWF      R4+3
	CALL       _Compare_Double+0
	MOVLW      1
	BTFSS      STATUS+0, 0
	MOVLW      0
	MOVWF      R0+0
	MOVF       R0+0, 0
	BTFSC      STATUS+0, 2
	GOTO       L_sound14
	CLRF       _panne+0
	CLRF       _panne+1
L_sound14:
;SmartGardenP.c,58 :: 		}
	GOTO       L_sound10
L_sound11:
;SmartGardenP.c,59 :: 		}
L_end_sound:
	RETURN
; end of _sound

_main:

;SmartGardenP.c,60 :: 		void main() {
;SmartGardenP.c,62 :: 		Sound_Init(&PORTC, 3);
	MOVLW      PORTC+0
	MOVWF      FARG_Sound_Init_snd_port+0
	MOVLW      3
	MOVWF      FARG_Sound_Init_snd_pin+0
	CALL       _Sound_Init+0
;SmartGardenP.c,63 :: 		TRISA.RA3=1;//entrer de capture d'humidite
	BSF        TRISA+0, 3
;SmartGardenP.c,64 :: 		trisb.rb0=1;//entrer capteur de pluie
	BSF        TRISB+0, 0
;SmartGardenP.c,65 :: 		trisb.rb4=1;//entrer interrepteur
	BSF        TRISB+0, 4
;SmartGardenP.c,66 :: 		trisb.rb5=1;//boutton consulter
	BSF        TRISB+0, 5
;SmartGardenP.c,67 :: 		trisc.rc1=0;//sortie moteur
	BCF        TRISC+0, 1
;SmartGardenP.c,68 :: 		trisc.rc2=0;//sortie moteur
	BCF        TRISC+0, 2
;SmartGardenP.c,71 :: 		INTCON.GIE=1; // Global interrupt
	BSF        INTCON+0, 7
;SmartGardenP.c,72 :: 		INTCON.INTE=1; //  interrupt source RB0
	BSF        INTCON+0, 4
;SmartGardenP.c,73 :: 		INTCON.RBIE=1; //  interrupt source RB Port
	BSF        INTCON+0, 3
;SmartGardenP.c,74 :: 		OPTION_REG.INTEDG=1; //Activer l'interruption sur front montant
	BSF        OPTION_REG+0, 6
;SmartGardenP.c,76 :: 		INTCON.T0IE = 1;
	BSF        INTCON+0, 5
;SmartGardenP.c,77 :: 		OPTION_REG = 0x07;                //Prediviseru = 7 -> * 256
	MOVLW      7
	MOVWF      OPTION_REG+0
;SmartGardenP.c,78 :: 		TMR0=0;  // de 0 jusqu' a 256 apres inttereption
	CLRF       TMR0+0
;SmartGardenP.c,79 :: 		NB=15;
	MOVLW      15
	MOVWF      _NB+0
	MOVLW      0
	MOVWF      _NB+1
;SmartGardenP.c,81 :: 		ADC_Init();    // init Analogic to Digital conversion
	CALL       _ADC_Init+0
;SmartGardenP.c,82 :: 		Lcd_Init();   // inti LCD
	CALL       _Lcd_Init+0
;SmartGardenP.c,83 :: 		Lcd_Cmd(_LCD_CLEAR);
	MOVLW      1
	MOVWF      FARG_Lcd_Cmd_out_char+0
	CALL       _Lcd_Cmd+0
;SmartGardenP.c,84 :: 		Lcd_Cmd(_LCD_CURSOR_OFF);
	MOVLW      12
	MOVWF      FARG_Lcd_Cmd_out_char+0
	CALL       _Lcd_Cmd+0
;SmartGardenP.c,85 :: 		Lcd_Out(1,6,"WELCOME TO");
	MOVLW      1
	MOVWF      FARG_Lcd_Out_row+0
	MOVLW      6
	MOVWF      FARG_Lcd_Out_column+0
	MOVLW      ?lstr1_SmartGardenP+0
	MOVWF      FARG_Lcd_Out_text+0
	CALL       _Lcd_Out+0
;SmartGardenP.c,86 :: 		Lcd_Out(2,2,"SMART GARDEN 2A3");
	MOVLW      2
	MOVWF      FARG_Lcd_Out_row+0
	MOVLW      2
	MOVWF      FARG_Lcd_Out_column+0
	MOVLW      ?lstr2_SmartGardenP+0
	MOVWF      FARG_Lcd_Out_text+0
	CALL       _Lcd_Out+0
;SmartGardenP.c,87 :: 		delay_ms(3000);
	MOVLW      16
	MOVWF      R11+0
	MOVLW      57
	MOVWF      R12+0
	MOVLW      13
	MOVWF      R13+0
L_main15:
	DECFSZ     R13+0, 1
	GOTO       L_main15
	DECFSZ     R12+0, 1
	GOTO       L_main15
	DECFSZ     R11+0, 1
	GOTO       L_main15
	NOP
	NOP
;SmartGardenP.c,88 :: 		Lcd_Cmd(_LCD_CLEAR);
	MOVLW      1
	MOVWF      FARG_Lcd_Cmd_out_char+0
	CALL       _Lcd_Cmd+0
;SmartGardenP.c,89 :: 		nombre_panne=EEPROM_read(0x00);
	CLRF       FARG_EEPROM_Read_Address+0
	CALL       _EEPROM_Read+0
	MOVF       R0+0, 0
	MOVWF      _nombre_panne+0
	CLRF       _nombre_panne+1
;SmartGardenP.c,90 :: 		while(1){
L_main16:
;SmartGardenP.c,91 :: 		if(v3==1)
	MOVLW      0
	XORWF      _v3+1, 0
	BTFSS      STATUS+0, 2
	GOTO       L__main96
	MOVLW      1
	XORWF      _v3+0, 0
L__main96:
	BTFSS      STATUS+0, 2
	GOTO       L_main18
;SmartGardenP.c,93 :: 		O=T;
	MOVF       _T+0, 0
	MOVWF      _O+0
	MOVF       _T+1, 0
	MOVWF      _O+1
;SmartGardenP.c,94 :: 		ByteTostr(nombre_panne,txt_panne);
	MOVF       _nombre_panne+0, 0
	MOVWF      FARG_ByteToStr_input+0
	MOVLW      _txt_panne+0
	MOVWF      FARG_ByteToStr_output+0
	CALL       _ByteToStr+0
;SmartGardenP.c,95 :: 		Lcd_Cmd(_LCD_CLEAR);
	MOVLW      1
	MOVWF      FARG_Lcd_Cmd_out_char+0
	CALL       _Lcd_Cmd+0
;SmartGardenP.c,96 :: 		while((T-O)<=60)
L_main19:
	MOVF       _O+0, 0
	SUBWF      _T+0, 0
	MOVWF      R1+0
	MOVF       _O+1, 0
	BTFSS      STATUS+0, 0
	ADDLW      1
	SUBWF      _T+1, 0
	MOVWF      R1+1
	MOVLW      128
	MOVWF      R0+0
	MOVLW      128
	XORWF      R1+1, 0
	SUBWF      R0+0, 0
	BTFSS      STATUS+0, 2
	GOTO       L__main97
	MOVF       R1+0, 0
	SUBLW      60
L__main97:
	BTFSS      STATUS+0, 0
	GOTO       L_main20
;SmartGardenP.c,98 :: 		lcd_out(1,1,"P=");
	MOVLW      1
	MOVWF      FARG_Lcd_Out_row+0
	MOVLW      1
	MOVWF      FARG_Lcd_Out_column+0
	MOVLW      ?lstr3_SmartGardenP+0
	MOVWF      FARG_Lcd_Out_text+0
	CALL       _Lcd_Out+0
;SmartGardenP.c,99 :: 		lcd_out(2,1,txt_panne);
	MOVLW      2
	MOVWF      FARG_Lcd_Out_row+0
	MOVLW      1
	MOVWF      FARG_Lcd_Out_column+0
	MOVLW      _txt_panne+0
	MOVWF      FARG_Lcd_Out_text+0
	CALL       _Lcd_Out+0
;SmartGardenP.c,100 :: 		}
	GOTO       L_main19
L_main20:
;SmartGardenP.c,101 :: 		Lcd_Cmd(_LCD_CLEAR);
	MOVLW      1
	MOVWF      FARG_Lcd_Cmd_out_char+0
	CALL       _Lcd_Cmd+0
;SmartGardenP.c,102 :: 		v3=0;
	CLRF       _v3+0
	CLRF       _v3+1
;SmartGardenP.c,103 :: 		}
L_main18:
;SmartGardenP.c,104 :: 		if(v && Button(&PORTB, 0, 1, 0)) v=0; // LOGIC State change from one To Zero
	MOVF       _v+0, 0
	IORWF      _v+1, 0
	BTFSC      STATUS+0, 2
	GOTO       L_main23
	MOVLW      PORTB+0
	MOVWF      FARG_Button_port+0
	CLRF       FARG_Button_pin+0
	MOVLW      1
	MOVWF      FARG_Button_time_ms+0
	CLRF       FARG_Button_active_state+0
	CALL       _Button+0
	MOVF       R0+0, 0
	BTFSC      STATUS+0, 2
	GOTO       L_main23
L__main88:
	CLRF       _v+0
	CLRF       _v+1
L_main23:
;SmartGardenP.c,105 :: 		if(v2 && Button(&PORTB, 4, 1, 0)) v2=0; // LOGIC State change from one  To Zero
	MOVF       _v2+0, 0
	IORWF      _v2+1, 0
	BTFSC      STATUS+0, 2
	GOTO       L_main26
	MOVLW      PORTB+0
	MOVWF      FARG_Button_port+0
	MOVLW      4
	MOVWF      FARG_Button_pin+0
	MOVLW      1
	MOVWF      FARG_Button_time_ms+0
	CLRF       FARG_Button_active_state+0
	CALL       _Button+0
	MOVF       R0+0, 0
	BTFSC      STATUS+0, 2
	GOTO       L_main26
L__main87:
	CLRF       _v2+0
	CLRF       _v2+1
L_main26:
;SmartGardenP.c,106 :: 		data_capteur=ADC_Read(3);   // Read data from RA0.AN0
	MOVLW      3
	MOVWF      FARG_ADC_Read_channel+0
	CALL       _ADC_Read+0
	CALL       _word2double+0
	MOVF       R0+0, 0
	MOVWF      _data_capteur+0
	MOVF       R0+1, 0
	MOVWF      _data_capteur+1
	MOVF       R0+2, 0
	MOVWF      _data_capteur+2
	MOVF       R0+3, 0
	MOVWF      _data_capteur+3
;SmartGardenP.c,107 :: 		Valeur=((data_capteur*100)/1023);
	MOVLW      0
	MOVWF      R4+0
	MOVLW      0
	MOVWF      R4+1
	MOVLW      72
	MOVWF      R4+2
	MOVLW      133
	MOVWF      R4+3
	CALL       _Mul_32x32_FP+0
	MOVLW      0
	MOVWF      R4+0
	MOVLW      192
	MOVWF      R4+1
	MOVLW      127
	MOVWF      R4+2
	MOVLW      136
	MOVWF      R4+3
	CALL       _Div_32x32_FP+0
	MOVF       R0+0, 0
	MOVWF      _Valeur+0
	MOVF       R0+1, 0
	MOVWF      _Valeur+1
	MOVF       R0+2, 0
	MOVWF      _Valeur+2
	MOVF       R0+3, 0
	MOVWF      _Valeur+3
;SmartGardenP.c,108 :: 		FloatToStr(Valeur, txt);
	MOVF       R0+0, 0
	MOVWF      FARG_FloatToStr_fnum+0
	MOVF       R0+1, 0
	MOVWF      FARG_FloatToStr_fnum+1
	MOVF       R0+2, 0
	MOVWF      FARG_FloatToStr_fnum+2
	MOVF       R0+3, 0
	MOVWF      FARG_FloatToStr_fnum+3
	MOVLW      _txt+0
	MOVWF      FARG_FloatToStr_str+0
	CALL       _FloatToStr+0
;SmartGardenP.c,109 :: 		Lcd_Out(4,1,"H=");
	MOVLW      4
	MOVWF      FARG_Lcd_Out_row+0
	MOVLW      1
	MOVWF      FARG_Lcd_Out_column+0
	MOVLW      ?lstr4_SmartGardenP+0
	MOVWF      FARG_Lcd_Out_text+0
	CALL       _Lcd_Out+0
;SmartGardenP.c,110 :: 		Lcd_Out_cp(txt);
	MOVLW      _txt+0
	MOVWF      FARG_Lcd_Out_CP_text+0
	CALL       _Lcd_Out_CP+0
;SmartGardenP.c,111 :: 		Lcd_Out(4,16,"%");
	MOVLW      4
	MOVWF      FARG_Lcd_Out_row+0
	MOVLW      16
	MOVWF      FARG_Lcd_Out_column+0
	MOVLW      ?lstr5_SmartGardenP+0
	MOVWF      FARG_Lcd_Out_text+0
	CALL       _Lcd_Out+0
;SmartGardenP.c,112 :: 		delay_ms(500);
	MOVLW      3
	MOVWF      R11+0
	MOVLW      138
	MOVWF      R12+0
	MOVLW      85
	MOVWF      R13+0
L_main27:
	DECFSZ     R13+0, 1
	GOTO       L_main27
	DECFSZ     R12+0, 1
	GOTO       L_main27
	DECFSZ     R11+0, 1
	GOTO       L_main27
	NOP
	NOP
;SmartGardenP.c,113 :: 		if((Valeur >=30.00 && Valeur<=50.00) && PORTB.RB4!=1 && v==0)
	MOVLW      0
	MOVWF      R4+0
	MOVLW      0
	MOVWF      R4+1
	MOVLW      112
	MOVWF      R4+2
	MOVLW      131
	MOVWF      R4+3
	MOVF       _Valeur+0, 0
	MOVWF      R0+0
	MOVF       _Valeur+1, 0
	MOVWF      R0+1
	MOVF       _Valeur+2, 0
	MOVWF      R0+2
	MOVF       _Valeur+3, 0
	MOVWF      R0+3
	CALL       _Compare_Double+0
	MOVLW      1
	BTFSS      STATUS+0, 0
	MOVLW      0
	MOVWF      R0+0
	MOVF       R0+0, 0
	BTFSC      STATUS+0, 2
	GOTO       L_main32
	MOVF       _Valeur+0, 0
	MOVWF      R4+0
	MOVF       _Valeur+1, 0
	MOVWF      R4+1
	MOVF       _Valeur+2, 0
	MOVWF      R4+2
	MOVF       _Valeur+3, 0
	MOVWF      R4+3
	MOVLW      0
	MOVWF      R0+0
	MOVLW      0
	MOVWF      R0+1
	MOVLW      72
	MOVWF      R0+2
	MOVLW      132
	MOVWF      R0+3
	CALL       _Compare_Double+0
	MOVLW      1
	BTFSS      STATUS+0, 0
	MOVLW      0
	MOVWF      R0+0
	MOVF       R0+0, 0
	BTFSC      STATUS+0, 2
	GOTO       L_main32
L__main86:
	BTFSC      PORTB+0, 4
	GOTO       L_main32
	MOVLW      0
	XORWF      _v+1, 0
	BTFSS      STATUS+0, 2
	GOTO       L__main98
	MOVLW      0
	XORWF      _v+0, 0
L__main98:
	BTFSS      STATUS+0, 2
	GOTO       L_main32
L__main85:
;SmartGardenP.c,115 :: 		v=0;
	CLRF       _v+0
	CLRF       _v+1
;SmartGardenP.c,116 :: 		v2=0;
	CLRF       _v2+0
	CLRF       _v2+1
;SmartGardenP.c,117 :: 		panne=0;
	CLRF       _panne+0
	CLRF       _panne+1
;SmartGardenP.c,118 :: 		write=0;
	CLRF       _write+0
	CLRF       _write+1
;SmartGardenP.c,119 :: 		}
L_main32:
;SmartGardenP.c,120 :: 		if((Valeur>50.00) && (v==0 || v==1))
	MOVF       _Valeur+0, 0
	MOVWF      R4+0
	MOVF       _Valeur+1, 0
	MOVWF      R4+1
	MOVF       _Valeur+2, 0
	MOVWF      R4+2
	MOVF       _Valeur+3, 0
	MOVWF      R4+3
	MOVLW      0
	MOVWF      R0+0
	MOVLW      0
	MOVWF      R0+1
	MOVLW      72
	MOVWF      R0+2
	MOVLW      132
	MOVWF      R0+3
	CALL       _Compare_Double+0
	MOVLW      1
	BTFSC      STATUS+0, 0
	MOVLW      0
	MOVWF      R0+0
	MOVF       R0+0, 0
	BTFSC      STATUS+0, 2
	GOTO       L_main37
	MOVLW      0
	XORWF      _v+1, 0
	BTFSS      STATUS+0, 2
	GOTO       L__main99
	MOVLW      0
	XORWF      _v+0, 0
L__main99:
	BTFSC      STATUS+0, 2
	GOTO       L__main84
	MOVLW      0
	XORWF      _v+1, 0
	BTFSS      STATUS+0, 2
	GOTO       L__main100
	MOVLW      1
	XORWF      _v+0, 0
L__main100:
	BTFSC      STATUS+0, 2
	GOTO       L__main84
	GOTO       L_main37
L__main84:
L__main83:
;SmartGardenP.c,122 :: 		v2=1;
	MOVLW      1
	MOVWF      _v2+0
	MOVLW      0
	MOVWF      _v2+1
;SmartGardenP.c,123 :: 		panne=0;
	CLRF       _panne+0
	CLRF       _panne+1
;SmartGardenP.c,124 :: 		write=0;
	CLRF       _write+0
	CLRF       _write+1
;SmartGardenP.c,125 :: 		}
L_main37:
;SmartGardenP.c,126 :: 		if(Valeur <=29.00)
	MOVF       _Valeur+0, 0
	MOVWF      R4+0
	MOVF       _Valeur+1, 0
	MOVWF      R4+1
	MOVF       _Valeur+2, 0
	MOVWF      R4+2
	MOVF       _Valeur+3, 0
	MOVWF      R4+3
	MOVLW      0
	MOVWF      R0+0
	MOVLW      0
	MOVWF      R0+1
	MOVLW      104
	MOVWF      R0+2
	MOVLW      131
	MOVWF      R0+3
	CALL       _Compare_Double+0
	MOVLW      1
	BTFSS      STATUS+0, 0
	MOVLW      0
	MOVWF      R0+0
	MOVF       R0+0, 0
	BTFSC      STATUS+0, 2
	GOTO       L_main38
;SmartGardenP.c,128 :: 		v=0;
	CLRF       _v+0
	CLRF       _v+1
;SmartGardenP.c,129 :: 		v2=0;
	CLRF       _v2+0
	CLRF       _v2+1
;SmartGardenP.c,130 :: 		panne=1;
	MOVLW      1
	MOVWF      _panne+0
	MOVLW      0
	MOVWF      _panne+1
;SmartGardenP.c,131 :: 		write++;
	INCF       _write+0, 1
	BTFSC      STATUS+0, 2
	INCF       _write+1, 1
;SmartGardenP.c,132 :: 		}
L_main38:
;SmartGardenP.c,133 :: 		if(panne==0 && v==0 && v2==0)      // Motor is working
	MOVLW      0
	XORWF      _panne+1, 0
	BTFSS      STATUS+0, 2
	GOTO       L__main101
	MOVLW      0
	XORWF      _panne+0, 0
L__main101:
	BTFSS      STATUS+0, 2
	GOTO       L_main41
	MOVLW      0
	XORWF      _v+1, 0
	BTFSS      STATUS+0, 2
	GOTO       L__main102
	MOVLW      0
	XORWF      _v+0, 0
L__main102:
	BTFSS      STATUS+0, 2
	GOTO       L_main41
	MOVLW      0
	XORWF      _v2+1, 0
	BTFSS      STATUS+0, 2
	GOTO       L__main103
	MOVLW      0
	XORWF      _v2+0, 0
L__main103:
	BTFSS      STATUS+0, 2
	GOTO       L_main41
L__main82:
;SmartGardenP.c,135 :: 		portc.rc1=1;
	BSF        PORTC+0, 1
;SmartGardenP.c,136 :: 		portc.rc2=0;
	BCF        PORTC+0, 2
;SmartGardenP.c,137 :: 		}
	GOTO       L_main42
L_main41:
;SmartGardenP.c,140 :: 		portc.rc1=0;
	BCF        PORTC+0, 1
;SmartGardenP.c,141 :: 		portc.rc2=0;
	BCF        PORTC+0, 2
;SmartGardenP.c,142 :: 		}
L_main42:
;SmartGardenP.c,143 :: 		if(panne==0 && v3==0)
	MOVLW      0
	XORWF      _panne+1, 0
	BTFSS      STATUS+0, 2
	GOTO       L__main104
	MOVLW      0
	XORWF      _panne+0, 0
L__main104:
	BTFSS      STATUS+0, 2
	GOTO       L_main45
	MOVLW      0
	XORWF      _v3+1, 0
	BTFSS      STATUS+0, 2
	GOTO       L__main105
	MOVLW      0
	XORWF      _v3+0, 0
L__main105:
	BTFSS      STATUS+0, 2
	GOTO       L_main45
L__main81:
;SmartGardenP.c,145 :: 		PORTC.RC3=0;
	BCF        PORTC+0, 3
;SmartGardenP.c,146 :: 		if(v==1 && v2==0)
	MOVLW      0
	XORWF      _v+1, 0
	BTFSS      STATUS+0, 2
	GOTO       L__main106
	MOVLW      1
	XORWF      _v+0, 0
L__main106:
	BTFSS      STATUS+0, 2
	GOTO       L_main48
	MOVLW      0
	XORWF      _v2+1, 0
	BTFSS      STATUS+0, 2
	GOTO       L__main107
	MOVLW      0
	XORWF      _v2+0, 0
L__main107:
	BTFSS      STATUS+0, 2
	GOTO       L_main48
L__main80:
;SmartGardenP.c,148 :: 		count3=0;
	CLRF       _count3+0
	CLRF       _count3+1
;SmartGardenP.c,149 :: 		count2=0;
	CLRF       _count2+0
	CLRF       _count2+1
;SmartGardenP.c,150 :: 		count4=0;
	CLRF       _count4+0
	CLRF       _count4+1
;SmartGardenP.c,151 :: 		count++;
	INCF       _count+0, 1
	BTFSC      STATUS+0, 2
	INCF       _count+1, 1
;SmartGardenP.c,152 :: 		if(count==1)
	MOVLW      0
	XORWF      _count+1, 0
	BTFSS      STATUS+0, 2
	GOTO       L__main108
	MOVLW      1
	XORWF      _count+0, 0
L__main108:
	BTFSS      STATUS+0, 2
	GOTO       L_main49
;SmartGardenP.c,154 :: 		Lcd_Cmd(_LCD_CLEAR);
	MOVLW      1
	MOVWF      FARG_Lcd_Cmd_out_char+0
	CALL       _Lcd_Cmd+0
;SmartGardenP.c,155 :: 		}
L_main49:
;SmartGardenP.c,156 :: 		if(count>=1){
	MOVLW      128
	XORWF      _count+1, 0
	MOVWF      R0+0
	MOVLW      128
	SUBWF      R0+0, 0
	BTFSS      STATUS+0, 2
	GOTO       L__main109
	MOVLW      1
	SUBWF      _count+0, 0
L__main109:
	BTFSS      STATUS+0, 0
	GOTO       L_main50
;SmartGardenP.c,157 :: 		lcd_out(1,1,"Arrosage Manuelle");
	MOVLW      1
	MOVWF      FARG_Lcd_Out_row+0
	MOVLW      1
	MOVWF      FARG_Lcd_Out_column+0
	MOVLW      ?lstr6_SmartGardenP+0
	MOVWF      FARG_Lcd_Out_text+0
	CALL       _Lcd_Out+0
;SmartGardenP.c,158 :: 		delay_ms(500);
	MOVLW      3
	MOVWF      R11+0
	MOVLW      138
	MOVWF      R12+0
	MOVLW      85
	MOVWF      R13+0
L_main51:
	DECFSZ     R13+0, 1
	GOTO       L_main51
	DECFSZ     R12+0, 1
	GOTO       L_main51
	DECFSZ     R11+0, 1
	GOTO       L_main51
	NOP
	NOP
;SmartGardenP.c,159 :: 		}
L_main50:
;SmartGardenP.c,160 :: 		}
L_main48:
;SmartGardenP.c,161 :: 		if(v==0 && v2==0)
	MOVLW      0
	XORWF      _v+1, 0
	BTFSS      STATUS+0, 2
	GOTO       L__main110
	MOVLW      0
	XORWF      _v+0, 0
L__main110:
	BTFSS      STATUS+0, 2
	GOTO       L_main54
	MOVLW      0
	XORWF      _v2+1, 0
	BTFSS      STATUS+0, 2
	GOTO       L__main111
	MOVLW      0
	XORWF      _v2+0, 0
L__main111:
	BTFSS      STATUS+0, 2
	GOTO       L_main54
L__main79:
;SmartGardenP.c,163 :: 		count3=0;
	CLRF       _count3+0
	CLRF       _count3+1
;SmartGardenP.c,164 :: 		count=0;
	CLRF       _count+0
	CLRF       _count+1
;SmartGardenP.c,165 :: 		count4=0;
	CLRF       _count4+0
	CLRF       _count4+1
;SmartGardenP.c,166 :: 		count2++;
	INCF       _count2+0, 1
	BTFSC      STATUS+0, 2
	INCF       _count2+1, 1
;SmartGardenP.c,167 :: 		if(count2==1)
	MOVLW      0
	XORWF      _count2+1, 0
	BTFSS      STATUS+0, 2
	GOTO       L__main112
	MOVLW      1
	XORWF      _count2+0, 0
L__main112:
	BTFSS      STATUS+0, 2
	GOTO       L_main55
;SmartGardenP.c,169 :: 		Lcd_Cmd(_LCD_CLEAR);
	MOVLW      1
	MOVWF      FARG_Lcd_Cmd_out_char+0
	CALL       _Lcd_Cmd+0
;SmartGardenP.c,170 :: 		}
L_main55:
;SmartGardenP.c,171 :: 		if(count2>=1)
	MOVLW      128
	XORWF      _count2+1, 0
	MOVWF      R0+0
	MOVLW      128
	SUBWF      R0+0, 0
	BTFSS      STATUS+0, 2
	GOTO       L__main113
	MOVLW      1
	SUBWF      _count2+0, 0
L__main113:
	BTFSS      STATUS+0, 0
	GOTO       L_main56
;SmartGardenP.c,173 :: 		lcd_out(1,1,"Arrosage gazon");
	MOVLW      1
	MOVWF      FARG_Lcd_Out_row+0
	MOVLW      1
	MOVWF      FARG_Lcd_Out_column+0
	MOVLW      ?lstr7_SmartGardenP+0
	MOVWF      FARG_Lcd_Out_text+0
	CALL       _Lcd_Out+0
;SmartGardenP.c,174 :: 		delay_ms(500);
	MOVLW      3
	MOVWF      R11+0
	MOVLW      138
	MOVWF      R12+0
	MOVLW      85
	MOVWF      R13+0
L_main57:
	DECFSZ     R13+0, 1
	GOTO       L_main57
	DECFSZ     R12+0, 1
	GOTO       L_main57
	DECFSZ     R11+0, 1
	GOTO       L_main57
	NOP
	NOP
;SmartGardenP.c,175 :: 		}
L_main56:
;SmartGardenP.c,176 :: 		}
L_main54:
;SmartGardenP.c,177 :: 		if(v2==1 && (v==0 ||v==1))
	MOVLW      0
	XORWF      _v2+1, 0
	BTFSS      STATUS+0, 2
	GOTO       L__main114
	MOVLW      1
	XORWF      _v2+0, 0
L__main114:
	BTFSS      STATUS+0, 2
	GOTO       L_main62
	MOVLW      0
	XORWF      _v+1, 0
	BTFSS      STATUS+0, 2
	GOTO       L__main115
	MOVLW      0
	XORWF      _v+0, 0
L__main115:
	BTFSC      STATUS+0, 2
	GOTO       L__main78
	MOVLW      0
	XORWF      _v+1, 0
	BTFSS      STATUS+0, 2
	GOTO       L__main116
	MOVLW      1
	XORWF      _v+0, 0
L__main116:
	BTFSC      STATUS+0, 2
	GOTO       L__main78
	GOTO       L_main62
L__main78:
L__main77:
;SmartGardenP.c,179 :: 		count=0;
	CLRF       _count+0
	CLRF       _count+1
;SmartGardenP.c,180 :: 		count2=0;
	CLRF       _count2+0
	CLRF       _count2+1
;SmartGardenP.c,181 :: 		count4=0;
	CLRF       _count4+0
	CLRF       _count4+1
;SmartGardenP.c,182 :: 		count3++;
	INCF       _count3+0, 1
	BTFSC      STATUS+0, 2
	INCF       _count3+1, 1
;SmartGardenP.c,183 :: 		if(count3==1)
	MOVLW      0
	XORWF      _count3+1, 0
	BTFSS      STATUS+0, 2
	GOTO       L__main117
	MOVLW      1
	XORWF      _count3+0, 0
L__main117:
	BTFSS      STATUS+0, 2
	GOTO       L_main63
;SmartGardenP.c,185 :: 		Lcd_Cmd(_LCD_CLEAR);
	MOVLW      1
	MOVWF      FARG_Lcd_Cmd_out_char+0
	CALL       _Lcd_Cmd+0
;SmartGardenP.c,186 :: 		}
L_main63:
;SmartGardenP.c,187 :: 		if(count3>=1)
	MOVLW      128
	XORWF      _count3+1, 0
	MOVWF      R0+0
	MOVLW      128
	SUBWF      R0+0, 0
	BTFSS      STATUS+0, 2
	GOTO       L__main118
	MOVLW      1
	SUBWF      _count3+0, 0
L__main118:
	BTFSS      STATUS+0, 0
	GOTO       L_main64
;SmartGardenP.c,189 :: 		lcd_out(1,1,"FIN Arrosage gazon");
	MOVLW      1
	MOVWF      FARG_Lcd_Out_row+0
	MOVLW      1
	MOVWF      FARG_Lcd_Out_column+0
	MOVLW      ?lstr8_SmartGardenP+0
	MOVWF      FARG_Lcd_Out_text+0
	CALL       _Lcd_Out+0
;SmartGardenP.c,190 :: 		delay_ms(500);
	MOVLW      3
	MOVWF      R11+0
	MOVLW      138
	MOVWF      R12+0
	MOVLW      85
	MOVWF      R13+0
L_main65:
	DECFSZ     R13+0, 1
	GOTO       L_main65
	DECFSZ     R12+0, 1
	GOTO       L_main65
	DECFSZ     R11+0, 1
	GOTO       L_main65
	NOP
	NOP
;SmartGardenP.c,191 :: 		}
L_main64:
;SmartGardenP.c,192 :: 		}
L_main62:
;SmartGardenP.c,193 :: 		}
L_main45:
;SmartGardenP.c,194 :: 		if(panne==1)
	MOVLW      0
	XORWF      _panne+1, 0
	BTFSS      STATUS+0, 2
	GOTO       L__main119
	MOVLW      1
	XORWF      _panne+0, 0
L__main119:
	BTFSS      STATUS+0, 2
	GOTO       L_main66
;SmartGardenP.c,196 :: 		count=0;
	CLRF       _count+0
	CLRF       _count+1
;SmartGardenP.c,197 :: 		count2=0;
	CLRF       _count2+0
	CLRF       _count2+1
;SmartGardenP.c,198 :: 		count3=0;
	CLRF       _count3+0
	CLRF       _count3+1
;SmartGardenP.c,199 :: 		count4++;
	INCF       _count4+0, 1
	BTFSC      STATUS+0, 2
	INCF       _count4+1, 1
;SmartGardenP.c,200 :: 		if(count4==1)
	MOVLW      0
	XORWF      _count4+1, 0
	BTFSS      STATUS+0, 2
	GOTO       L__main120
	MOVLW      1
	XORWF      _count4+0, 0
L__main120:
	BTFSS      STATUS+0, 2
	GOTO       L_main67
;SmartGardenP.c,202 :: 		Lcd_Cmd(_LCD_CLEAR);
	MOVLW      1
	MOVWF      FARG_Lcd_Cmd_out_char+0
	CALL       _Lcd_Cmd+0
;SmartGardenP.c,203 :: 		}
L_main67:
;SmartGardenP.c,204 :: 		if(count4>=1)
	MOVLW      128
	XORWF      _count4+1, 0
	MOVWF      R0+0
	MOVLW      128
	SUBWF      R0+0, 0
	BTFSS      STATUS+0, 2
	GOTO       L__main121
	MOVLW      1
	SUBWF      _count4+0, 0
L__main121:
	BTFSS      STATUS+0, 0
	GOTO       L_main68
;SmartGardenP.c,206 :: 		lcd_out(1,1,"Systeme En Panne");
	MOVLW      1
	MOVWF      FARG_Lcd_Out_row+0
	MOVLW      1
	MOVWF      FARG_Lcd_Out_column+0
	MOVLW      ?lstr9_SmartGardenP+0
	MOVWF      FARG_Lcd_Out_text+0
	CALL       _Lcd_Out+0
;SmartGardenP.c,207 :: 		delay_ms(500);
	MOVLW      3
	MOVWF      R11+0
	MOVLW      138
	MOVWF      R12+0
	MOVLW      85
	MOVWF      R13+0
L_main69:
	DECFSZ     R13+0, 1
	GOTO       L_main69
	DECFSZ     R12+0, 1
	GOTO       L_main69
	DECFSZ     R11+0, 1
	GOTO       L_main69
	NOP
	NOP
;SmartGardenP.c,208 :: 		}
L_main68:
;SmartGardenP.c,209 :: 		if(write==1) // Only one time
	MOVLW      0
	XORWF      _write+1, 0
	BTFSS      STATUS+0, 2
	GOTO       L__main122
	MOVLW      1
	XORWF      _write+0, 0
L__main122:
	BTFSS      STATUS+0, 2
	GOTO       L_main70
;SmartGardenP.c,211 :: 		nombre_panne=EEPROM_read(0x00);
	CLRF       FARG_EEPROM_Read_Address+0
	CALL       _EEPROM_Read+0
	MOVF       R0+0, 0
	MOVWF      _nombre_panne+0
	CLRF       _nombre_panne+1
;SmartGardenP.c,212 :: 		nombre_panne+=1;
	INCF       _nombre_panne+0, 1
	BTFSC      STATUS+0, 2
	INCF       _nombre_panne+1, 1
;SmartGardenP.c,213 :: 		EEPROM_write(0x00,nombre_panne);
	CLRF       FARG_EEPROM_Write_Address+0
	MOVF       _nombre_panne+0, 0
	MOVWF      FARG_EEPROM_Write_data_+0
	CALL       _EEPROM_Write+0
;SmartGardenP.c,214 :: 		}
L_main70:
;SmartGardenP.c,215 :: 		PORTC.RC3=1;             // +VCC to RC3
	BSF        PORTC+0, 3
;SmartGardenP.c,216 :: 		if(PORTC.RC3=1 && write==1) // only one time for 5 min
	MOVLW      0
	XORWF      _write+1, 0
	BTFSS      STATUS+0, 2
	GOTO       L__main123
	MOVLW      1
	XORWF      _write+0, 0
L__main123:
	BTFSS      STATUS+0, 2
	GOTO       L_main72
	MOVLW      1
	MOVWF      R0+0
	GOTO       L_main71
L_main72:
	CLRF       R0+0
L_main71:
	BTFSC      R0+0, 0
	GOTO       L__main124
	BCF        PORTC+0, 3
	GOTO       L__main125
L__main124:
	BSF        PORTC+0, 3
L__main125:
	BTFSS      PORTC+0, 3
	GOTO       L_main73
;SmartGardenP.c,218 :: 		O=T;   // Old time ;
	MOVF       _T+0, 0
	MOVWF      _O+0
	MOVF       _T+1, 0
	MOVWF      _O+1
;SmartGardenP.c,219 :: 		sound(O);                          //Sounder function
	MOVF       _T+0, 0
	MOVWF      FARG_sound_O+0
	MOVF       _T+1, 0
	MOVWF      FARG_sound_O+1
	CALL       _sound+0
;SmartGardenP.c,220 :: 		}
L_main73:
;SmartGardenP.c,221 :: 		}
L_main66:
;SmartGardenP.c,223 :: 		}
	GOTO       L_main16
;SmartGardenP.c,224 :: 		}
L_end_main:
	GOTO       $+0
; end of _main
